(dp1
S'failed'
p2
(lp3
S'18'
p4
aS'19'
p5
aS'21'
p6
asS'source_names'
p7
(lp8
S'scatterbytes/testing/'
p9
asS'ids'
p10
(dp11
I1
(S'/home/randall/programs/scatterbytes/scatterbytes/testing/test_client.py'
S'scatterbytes.testing.test_client'
p12
S'BasicTestCase.test_prepare_file'
tp13
sI2
(S'/home/randall/programs/scatterbytes/scatterbytes/testing/test_client.py'
g12
S'BasicTestCase.test_prepare_file_encrypt_and_compress'
tp14
sI3
(S'/home/randall/programs/scatterbytes/scatterbytes/testing/test_client.py'
g12
S'BasicTestCase.test_upload_chunks'
tp15
sI4
(S'/home/randall/programs/scatterbytes/scatterbytes/testing/test_client.py'
g12
S'test_upload_log'
tp16
sI5
(S'/home/randall/programs/scatterbytes/scatterbytes/testing/test_client_chunk.py'
S'scatterbytes.testing.test_client_chunk'
p17
S'BasicTestCase.test_combine_chunks'
tp18
sI6
(S'/home/randall/programs/scatterbytes/scatterbytes/testing/test_client_chunk.py'
g17
S'BasicTestCase.test_split_file'
tp19
sI7
(S'/home/randall/programs/scatterbytes/scatterbytes/testing/test_client_chunk.py'
g17
S'EncryptionTestCase.test_combine_chunks'
tp20
sI8
(S'/home/randall/programs/scatterbytes/scatterbytes/testing/test_client_chunk.py'
g17
S'EncryptionTestCase.test_split_file'
tp21
sI9
(S'/home/randall/programs/scatterbytes/scatterbytes/testing/test_client_chunk.py'
g17
S'ExactChunkSizeTestCase.test_combine_chunks'
tp22
sI10
(S'/home/randall/programs/scatterbytes/scatterbytes/testing/test_client_chunk.py'
g17
S'ExactChunkSizeTestCase.test_split_file'
tp23
sI11
(S'/home/randall/programs/scatterbytes/scatterbytes/testing/test_client_chunk.py'
g17
S'JustCompressionTestCase.test_combine_chunks'
tp24
sI12
(S'/home/randall/programs/scatterbytes/scatterbytes/testing/test_client_chunk.py'
g17
S'JustCompressionTestCase.test_split_file'
tp25
sI13
(S'/home/randall/programs/scatterbytes/scatterbytes/testing/test_client_chunk.py'
g17
S'SmallDataTestCase.test_combine_chunks'
tp26
sI14
(S'/home/randall/programs/scatterbytes/scatterbytes/testing/test_client_chunk.py'
g17
S'SmallDataTestCase.test_split_file'
tp27
sI15
(S'/home/randall/programs/scatterbytes/scatterbytes/testing/test_client_chunk.py'
g17
S'test_calc_chunk_sizes'
tp28
sI16
(S'/home/randall/programs/scatterbytes/scatterbytes/testing/test_config.py'
S'scatterbytes.testing.test_config'
S'StandardClientTestCase.test_defaults'
tp29
sI17
(S'/home/randall/programs/scatterbytes/scatterbytes/testing/test_crypt.py'
S'scatterbytes.testing.test_crypt'
S'test_sig_key'
tp30
sI18
(S'/home/randall/programs/scatterbytes/scatterbytes/testing/test_downloader.py'
S'scatterbytes.testing.test_downloader'
p31
S'BasicTestCase.test_download'
tp32
sI19
(S'/home/randall/programs/scatterbytes/scatterbytes/testing/test_downloader.py'
g31
S'BasicTestCase.test_with_one_snode_failure'
tp33
sI20
(S'/home/randall/programs/scatterbytes/scatterbytes/testing/test_downloader.py'
g31
S'BasicTestCase.test_with_two_snode_failures'
tp34
sI21
(S'/home/randall/programs/scatterbytes/scatterbytes/testing/test_downloader.py'
g31
S'ResumeTestCase.test_resume'
tp35
sI22
(S'/home/randall/programs/scatterbytes/scatterbytes/testing/test_downloader.py'
g31
S'test_chunk_splitting'
tp36
sI23
(S'/home/randall/programs/scatterbytes/scatterbytes/testing/test_downloader.py'
g31
S'test_download_log'
tp37
sI24
(S'/home/randall/programs/scatterbytes/scatterbytes/testing/test_https_common.py'
S'scatterbytes.testing.test_https_common'
p38
S'BasicTestCase.test_HTTPSConnection'
tp39
sI25
(S'/home/randall/programs/scatterbytes/scatterbytes/testing/test_https_common.py'
g38
S'BasicTestCase.test_resume_session'
tp40
sI26
(S'/home/randall/programs/scatterbytes/scatterbytes/testing/test_https_common.py'
g38
S'ServerManagementTestCase.test_server_unbind'
tp41
sI27
(S'/home/randall/programs/scatterbytes/scatterbytes/testing/test_jsonrpc.py'
S'scatterbytes.testing.test_jsonrpc'
p42
S'NormalRPCTestCase.test_request_handler_get_501'
tp43
sI28
(S'/home/randall/programs/scatterbytes/scatterbytes/testing/test_jsonrpc.py'
g42
S'NormalRPCTestCase.test_request_handler_post'
tp44
sI29
(S'/home/randall/programs/scatterbytes/scatterbytes/testing/test_jsonrpc.py'
g42
S'test_marshall'
tp45
sI30
(S'/home/randall/programs/scatterbytes/scatterbytes/testing/test_jsonrpc.py'
g42
S'test_marshall_perform'
tp46
sI31
(S'/home/randall/programs/scatterbytes/scatterbytes/testing/test_jsonrpc.py'
g42
S'test_request_handler_perform'
tp47
sI32
(S'/home/randall/programs/scatterbytes/scatterbytes/testing/test_jsonrpc.py'
g42
S'test_rpc_server'
tp48
sI33
(S'/home/randall/programs/scatterbytes/scatterbytes/testing/test_m2_http.py'
S'scatterbytes.testing.test_m2_http'
S'ResumeSessionTestCase.test_resume'
tp49
sI34
(S'/home/randall/programs/scatterbytes/scatterbytes/testing/test_node_common.py'
S'scatterbytes.testing.test_node_common'
p50
S'DownloadCertControlNodeFailureTestCase.test_download_certificates'
tp51
sI35
(S'/home/randall/programs/scatterbytes/scatterbytes/testing/test_node_common.py'
g50
S'DownloadCertNormalTestCase.test_download_certificates'
tp52
sI36
(S'/home/randall/programs/scatterbytes/scatterbytes/testing/test_storagenode.py'
S'scatterbytes.testing.test_storagenode'
p53
S'BasicTestCase.test_check_hash'
tp54
sI37
(S'/home/randall/programs/scatterbytes/scatterbytes/testing/test_storagenode.py'
g53
S'BasicTestCase.test_delete_chunk'
tp55
sI38
(S'/home/randall/programs/scatterbytes/scatterbytes/testing/test_storagenode.py'
g53
S'BasicTestCase.test_retrieve_chunk'
tp56
sI39
(S'/home/randall/programs/scatterbytes/scatterbytes/testing/test_storagenode.py'
g53
S'BasicTestCase.test_store_chunk'
tp57
sI40
(S'/home/randall/programs/scatterbytes/scatterbytes/testing/test_storagenode.py'
g53
S'FailIntegrityCheckerTestCase.test_integrity_check'
tp58
sI41
(S'/home/randall/programs/scatterbytes/scatterbytes/testing/test_storagenode.py'
g53
S'InitializationTestCase.test_check_hash'
tp59
sI42
(S'/home/randall/programs/scatterbytes/scatterbytes/testing/test_storagenode.py'
g53
S'NormalIntegrityCheckerTestCase.test_integrity_check'
tp60
sI43
(S'/home/randall/programs/scatterbytes/scatterbytes/testing/test_storagenode.py'
g53
S'ReplaceIntegrityCheckerTestCase.test_integrity_check'
tp61
sI44
(S'/home/randall/programs/scatterbytes/scatterbytes/testing/test_storagenode.py'
g53
S'test_collect_recovery_info'
tp62
sI45
(S'/home/randall/programs/scatterbytes/scatterbytes/testing/test_storagenode.py'
g53
S'test_task_scheduler'
tp63
sI46
(S'/home/randall/programs/scatterbytes/scatterbytes/testing/test_storagenodeserver.py'
S'scatterbytes.testing.test_storagenodeserver'
p64
S'SingleThreadedTestCase.test_check_hash'
tp65
sI47
(S'/home/randall/programs/scatterbytes/scatterbytes/testing/test_storagenodeserver.py'
g64
S'SingleThreadedTestCase.test_delete_chunk'
tp66
sI48
(S'/home/randall/programs/scatterbytes/scatterbytes/testing/test_storagenodeserver.py'
g64
S'SingleThreadedTestCase.test_retrieve_chunk'
tp67
sI49
(S'/home/randall/programs/scatterbytes/scatterbytes/testing/test_storagenodeserver.py'
g64
S'SingleThreadedTestCase.test_send_chunk'
tp68
sI50
(S'/home/randall/programs/scatterbytes/scatterbytes/testing/test_storagenodeserver.py'
g64
S'SingleThreadedTestCase.test_store_chunk'
tp69
sI51
(S'/home/randall/programs/scatterbytes/scatterbytes/testing/test_validation.py'
S'scatterbytes.testing.test_validation'
S'RandomPasswordTestCase.test_random_password'
tp70
ss.